target datalayout = "e-m:e-p270:32:32-p271:32:32-p272:64:64-i64:64-i128:128-f80:128-n8:16:32:64-S128"
target triple = "x86_64-pc-linux-gnu"

%struct.Curl_cftype = type { ptr, i32, i32, ptr, ptr, ptr, ptr, ptr, ptr, ptr, ptr, ptr, ptr, ptr, ptr }
%struct.Curl_sockaddr_ex = type { i32, i32, i32, i32, %union.anon }
%union.anon = type { %struct.Curl_sockaddr_storage }
%struct.Curl_sockaddr_storage = type { %union.anon.0 }
%union.anon.0 = type { %struct.sockaddr_storage }
%struct.sockaddr_storage = type { i16, [118 x i8], i64 }
%struct.Curl_easy = type { i32, i64, ptr, ptr, ptr, %struct.Curl_llist_element, %struct.Curl_llist_element, i32, i32, %struct.Curl_message, %struct.easy_pollset, %struct.Names, ptr, ptr, ptr, %struct.SingleRequest, %struct.UserDefined, ptr, ptr, %struct.Progress, %struct.UrlState, ptr, %struct.PureInfo, %struct.curl_tlssessioninfo }
%struct.Curl_llist_element = type { ptr, ptr, ptr }
%struct.Curl_message = type { %struct.Curl_llist_element, %struct.CURLMsg }
%struct.CURLMsg = type { i32, ptr, %union.anon.3 }
%union.anon.3 = type { ptr }
%struct.easy_pollset = type { [5 x i32], i32, [5 x i8] }
%struct.Names = type { ptr, i32 }
%struct.SingleRequest = type <{ i64, i64, i64, i64, i64, %struct.curltime, i32, i32, i32, i32, i64, i32, i32, %struct.curltime, i32, i32, ptr, i64, i64, ptr, ptr, i64, ptr, %union.anon.4, ptr, [2 x i8], i8, i16, [3 x i8] }>
%struct.curltime = type { i64, i32 }
%union.anon.4 = type { ptr }
%struct.UserDefined = type <{ ptr, ptr, ptr, ptr, ptr, ptr, i16, [6 x i8], i64, i64, i64, ptr, ptr, i64, i16, i16, [4 x i8], ptr, ptr, ptr, ptr, ptr, ptr, ptr, ptr, ptr, ptr, ptr, ptr, ptr, ptr, ptr, ptr, ptr, ptr, ptr, ptr, ptr, ptr, ptr, i32, i32, i32, i32, i64, i64, i64, i64, i64, i64, i64, i64, ptr, ptr, %struct.curl_mimepart, ptr, ptr, i64, i8, i8, i8, [5 x i8], %struct.ssl_config_data, %struct.ssl_config_data, ptr, i16, i8, i8, [4 x i8], %struct.ssl_general_config, i32, i32, i32, [4 x i8], ptr, ptr, i8, [7 x i8], i64, i8, i8, i8, i8, i32, ptr, ptr, ptr, i8, i8, [2 x i8], i32, [80 x ptr], [8 x ptr], i32, i32, i32, [4 x i8], ptr, ptr, ptr, ptr, ptr, i8, [3 x i8], i32, i32, [4 x i8], i64, %struct.Curl_data_priority, ptr, ptr, i64, ptr, ptr, ptr, ptr, ptr, i8, [3 x i8], i32, i8, i8, i56, [6 x i8] }>
%struct.curl_mimepart = type { ptr, ptr, i32, i32, ptr, ptr, ptr, ptr, ptr, ptr, ptr, ptr, ptr, ptr, ptr, i64, %struct.mime_state, ptr, %struct.mime_encoder_state, i64 }
%struct.mime_state = type { i32, ptr, i64 }
%struct.mime_encoder_state = type { i64, i64, i64, [256 x i8] }
%struct.ssl_config_data = type { %struct.ssl_primary_config, i64, ptr, ptr, ptr, ptr, ptr, ptr, ptr, i8 }
%struct.ssl_primary_config = type { ptr, ptr, ptr, ptr, ptr, ptr, ptr, ptr, ptr, ptr, ptr, ptr, i8, i32, i8, i8 }
%struct.ssl_general_config = type { i64, i32 }
%struct.Curl_data_priority = type { ptr, ptr, i32, i8 }
%struct.Progress = type { i64, i64, i64, i64, i64, i64, i32, i32, i64, i64, i64, i64, i64, i64, i64, i64, i64, i64, %struct.curltime, %struct.curltime, %struct.curltime, %struct.curltime, %struct.curltime, i64, %struct.curltime, i64, [6 x i64], [6 x %struct.curltime], i32, i8 }
%struct.UrlState = type { ptr, %struct.curltime, i64, i64, %struct.dynbuf, ptr, ptr, ptr, i64, ptr, i32, i32, i32, ptr, i64, [3 x %struct.tempbuf], i32, i32, ptr, i64, i32, ptr, %struct.digestdata, %struct.digestdata, %struct.auth, %struct.auth, %struct.Curl_async, ptr, %struct.curltime, %struct.Curl_tree, %struct.Curl_llist, [15 x %struct.time_node], ptr, i8, i64, ptr, i64, i64, %struct.Curl_data_priority, ptr, ptr, ptr, %struct.urlpieces, ptr, ptr, ptr, ptr, ptr, i64, %struct.dynbuf, %struct.Curl_llist, [2 x %struct.curl_header], ptr, i32, ptr, %struct.dynamically_allocated_data, i8, i8, i8, i8, i24 }
%struct.tempbuf = type { %struct.dynbuf, i32, i8 }
%struct.digestdata = type { ptr, ptr, ptr, ptr, ptr, ptr, i32, i8, i8 }
%struct.auth = type { i64, i64, i64, i8 }
%struct.Curl_async = type { ptr, ptr, ptr, ptr, i32, i32, i8 }
%struct.Curl_tree = type { ptr, ptr, ptr, ptr, %struct.curltime, ptr }
%struct.time_node = type { %struct.Curl_llist_element, %struct.curltime, i32 }
%struct.urlpieces = type { ptr, ptr, ptr, ptr, ptr, ptr, ptr, ptr }
%struct.dynbuf = type { ptr, i64, i64, i64 }
%struct.Curl_llist = type { ptr, ptr, ptr, i64 }
%struct.curl_header = type { ptr, ptr, i64, i64, i32, ptr }
%struct.dynamically_allocated_data = type { ptr, ptr, ptr, ptr, ptr, ptr, ptr, ptr, ptr, ptr, ptr, ptr, ptr, ptr }
%struct.PureInfo = type { i32, i32, i32, i64, i64, i64, i64, i64, ptr, ptr, i64, i32, [46 x i8], i32, i32, [46 x i8], i32, ptr, i32, %struct.curl_certinfo, i32, i8 }
%struct.curl_certinfo = type { i32, ptr }
%struct.curl_tlssessioninfo = type { i32, ptr }
%struct.Curl_cfilter = type { ptr, ptr, ptr, ptr, i32, i8 }
%struct.cf_socket_ctx = type { i32, %struct.Curl_sockaddr_ex, i32, %struct.bufq, [46 x i8], i32, [46 x i8], i32, %struct.curltime, %struct.curltime, %struct.curltime, i32, i8 }
%struct.bufq = type { ptr, ptr, ptr, ptr, i64, i64, i64, i32 }

@.str.33 = private unnamed_addr constant [39 x i8] c"adjust_pollset(!connected) -> %d socks\00", align 1
@.str.34 = private unnamed_addr constant [36 x i8] c"adjust_pollset(!active) -> %d socks\00", align 1

; Function Attrs: nounwind uwtable
define internal void @cf_socket_adjust_pollset(ptr noundef %0, ptr noundef %1, ptr noundef %2) #0 {
  %4 = alloca ptr, align 8
  %5 = alloca ptr, align 8
  %6 = alloca ptr, align 8
  %7 = alloca ptr, align 8
  store ptr %0, ptr %4, align 8
  store ptr %1, ptr %5, align 8
  store ptr %2, ptr %6, align 8
  %8 = load ptr, ptr %4, align 8
  %9 = getelementptr inbounds %struct.Curl_cfilter, ptr %8, i32 0, i32 2
  %10 = load ptr, ptr %9, align 8
  store ptr %10, ptr %7, align 8
  %11 = load ptr, ptr %7, align 8
  %12 = getelementptr inbounds %struct.cf_socket_ctx, ptr %11, i32 0, i32 2
  %13 = load i32, ptr %12, align 8
  %14 = icmp ne i32 %13, -1
  br i1 %14, label %15, label %104

15:                                               ; preds = %3
  %16 = load ptr, ptr %4, align 8
  %17 = getelementptr inbounds %struct.Curl_cfilter, ptr %16, i32 0, i32 5
  %18 = load i8, ptr %17, align 4
  %19 = and i8 %18, 1
  %20 = zext i8 %19 to i32
  %21 = icmp ne i32 %20, 0
  br i1 %21, label %58, label %22

22:                                               ; preds = %15
  %23 = load ptr, ptr %5, align 8
  %24 = load ptr, ptr %6, align 8
  %25 = load ptr, ptr %7, align 8
  %26 = getelementptr inbounds %struct.cf_socket_ctx, ptr %25, i32 0, i32 2
  %27 = load i32, ptr %26, align 8
  call void @Curl_pollset_change(ptr noundef %23, ptr noundef %24, i32 noundef %27, i32 noundef 2, i32 noundef 1)
  br label %28

28:                                               ; preds = %22
  %29 = load ptr, ptr %5, align 8
  %30 = icmp ne ptr %29, null
  br i1 %30, label %31, label %56

31:                                               ; preds = %28
  %32 = load ptr, ptr %5, align 8
  %33 = getelementptr inbounds %struct.Curl_easy, ptr %32, i32 0, i32 16
  %34 = getelementptr inbounds %struct.UserDefined, ptr %33, i32 0, i32 122
  %35 = load i64, ptr %34, align 2
  %36 = lshr i64 %35, 28
  %37 = and i64 %36, 1
  %38 = trunc i64 %37 to i32
  %39 = icmp ne i32 %38, 0
  br i1 %39, label %40, label %56

40:                                               ; preds = %31
  %41 = load ptr, ptr %4, align 8
  %42 = icmp ne ptr %41, null
  br i1 %42, label %43, label %56

43:                                               ; preds = %40
  %44 = load ptr, ptr %4, align 8
  %45 = getelementptr inbounds %struct.Curl_cfilter, ptr %44, i32 0, i32 0
  %46 = load ptr, ptr %45, align 8
  %47 = getelementptr inbounds %struct.Curl_cftype, ptr %46, i32 0, i32 2
  %48 = load i32, ptr %47, align 4
  %49 = icmp sge i32 %48, 1
  br i1 %49, label %50, label %56

50:                                               ; preds = %43
  %51 = load ptr, ptr %5, align 8
  %52 = load ptr, ptr %4, align 8
  %53 = load ptr, ptr %6, align 8
  %54 = getelementptr inbounds %struct.easy_pollset, ptr %53, i32 0, i32 1
  %55 = load i32, ptr %54, align 4
  call void (ptr, ptr, ptr, ...) @Curl_trc_cf_infof(ptr noundef %51, ptr noundef %52, ptr noundef @.str.33, i32 noundef %55)
  br label %56

56:                                               ; preds = %50, %43, %40, %31, %28
  br label %57

57:                                               ; preds = %56
  br label %103

58:                                               ; preds = %15
  %59 = load ptr, ptr %7, align 8
  %60 = getelementptr inbounds %struct.cf_socket_ctx, ptr %59, i32 0, i32 12
  %61 = load i8, ptr %60, align 4
  %62 = lshr i8 %61, 3
  %63 = and i8 %62, 1
  %64 = zext i8 %63 to i32
  %65 = icmp ne i32 %64, 0
  br i1 %65, label %102, label %66

66:                                               ; preds = %58
  %67 = load ptr, ptr %5, align 8
  %68 = load ptr, ptr %6, align 8
  %69 = load ptr, ptr %7, align 8
  %70 = getelementptr inbounds %struct.cf_socket_ctx, ptr %69, i32 0, i32 2
  %71 = load i32, ptr %70, align 8
  call void @Curl_pollset_change(ptr noundef %67, ptr noundef %68, i32 noundef %71, i32 noundef 1, i32 noundef 0)
  br label %72

72:                                               ; preds = %66
  %73 = load ptr, ptr %5, align 8
  %74 = icmp ne ptr %73, null
  br i1 %74, label %75, label %100

75:                                               ; preds = %72
  %76 = load ptr, ptr %5, align 8
  %77 = getelementptr inbounds %struct.Curl_easy, ptr %76, i32 0, i32 16
  %78 = getelementptr inbounds %struct.UserDefined, ptr %77, i32 0, i32 122
  %79 = load i64, ptr %78, align 2
  %80 = lshr i64 %79, 28
  %81 = and i64 %80, 1
  %82 = trunc i64 %81 to i32
  %83 = icmp ne i32 %82, 0
  br i1 %83, label %84, label %100

84:                                               ; preds = %75
  %85 = load ptr, ptr %4, align 8
  %86 = icmp ne ptr %85, null
  br i1 %86, label %87, label %100

87:                                               ; preds = %84
  %88 = load ptr, ptr %4, align 8
  %89 = getelementptr inbounds %struct.Curl_cfilter, ptr %88, i32 0, i32 0
  %90 = load ptr, ptr %89, align 8
  %91 = getelementptr inbounds %struct.Curl_cftype, ptr %90, i32 0, i32 2
  %92 = load i32, ptr %91, align 4
  %93 = icmp sge i32 %92, 1
  br i1 %93, label %94, label %100

94:                                               ; preds = %87
  %95 = load ptr, ptr %5, align 8
  %96 = load ptr, ptr %4, align 8
  %97 = load ptr, ptr %6, align 8
  %98 = getelementptr inbounds %struct.easy_pollset, ptr %97, i32 0, i32 1
  %99 = load i32, ptr %98, align 4
  call void (ptr, ptr, ptr, ...) @Curl_trc_cf_infof(ptr noundef %95, ptr noundef %96, ptr noundef @.str.34, i32 noundef %99)
  br label %100

100:                                              ; preds = %94, %87, %84, %75, %72
  br label %101

101:                                              ; preds = %100
  br label %102

102:                                              ; preds = %101, %58
  br label %103

103:                                              ; preds = %102, %57
  br label %104

104:                                              ; preds = %103, %3
  ret void
}