; Function Attrs: nounwind uwtable
define internal void @cf_socket_adjust_pollset(ptr noundef %0, ptr noundef %1, ptr noundef %2) #2 {
  %4 = getelementptr inbounds nuw i8, ptr %0, i64 16
  %5 = load ptr, ptr %4, align 8
  %6 = getelementptr inbounds nuw i8, ptr %5, i64 152
  %7 = load i32, ptr %6, align 8
  %.not = icmp eq i32 %7, -1
  br i1 %.not, label %38, label %8

8:                                                ; preds = %3
  %9 = getelementptr inbounds nuw i8, ptr %0, i64 36
  %10 = load i8, ptr %9, align 4
  %11 = and i8 %10, 1
  %.not30 = icmp eq i8 %11, 0
  br i1 %.not30, label %12, label %22

12:                                               ; preds = %8
  tail call void @Curl_pollset_change(ptr noundef %1, ptr noundef %2, i32 noundef %7, i32 noundef 2, i32 noundef 1) #13
  %.not31 = icmp eq ptr %1, null
  br i1 %.not31, label %38, label %13

13:                                               ; preds = %12
  %14 = getelementptr inbounds nuw i8, ptr %1, i64 2642
  %15 = load i64, ptr %14, align 2
  %16 = and i64 %15, 268435456
  %.not35 = icmp eq i64 %16, 0
  br i1 %.not35, label %38, label %17

17:                                               ; preds = %13
  %18 = load ptr, ptr %0, align 8
  %19 = getelementptr inbounds nuw i8, ptr %18, i64 12
  %20 = load i32, ptr %19, align 4
  %21 = icmp sgt i32 %20, 0
  br i1 %21, label %.sink.split, label %38

22:                                               ; preds = %8
  %23 = getelementptr inbounds nuw i8, ptr %5, i64 380
  %24 = load i8, ptr %23, align 4
  %25 = and i8 %24, 8
  %.not32 = icmp eq i8 %25, 0
  br i1 %.not32, label %26, label %38

26:                                               ; preds = %22
  tail call void @Curl_pollset_change(ptr noundef %1, ptr noundef %2, i32 noundef %7, i32 noundef 1, i32 noundef 0) #13
  %.not33 = icmp eq ptr %1, null
  br i1 %.not33, label %38, label %27

27:                                               ; preds = %26
  %28 = getelementptr inbounds nuw i8, ptr %1, i64 2642
  %29 = load i64, ptr %28, align 2
  %30 = and i64 %29, 268435456
  %.not34 = icmp eq i64 %30, 0
  br i1 %.not34, label %38, label %31

31:                                               ; preds = %27
  %32 = load ptr, ptr %0, align 8
  %33 = getelementptr inbounds nuw i8, ptr %32, i64 12
  %34 = load i32, ptr %33, align 4
  %35 = icmp sgt i32 %34, 0
  br i1 %35, label %.sink.split, label %38

.sink.split:                                      ; preds = %31, %17
  %.str.33.sink = phi ptr [ @.str.33, %17 ], [ @.str.34, %31 ]
  %36 = getelementptr inbounds nuw i8, ptr %2, i64 20
  %37 = load i32, ptr %36, align 4
  tail call void (ptr, ptr, ptr, ...) @Curl_trc_cf_infof(ptr noundef nonnull %1, ptr noundef nonnull %0, ptr noundef nonnull %.str.33.sink, i32 noundef %37) #13
  br label %38

38:                                               ; preds = %.sink.split, %12, %13, %17, %31, %27, %26, %22, %3
  ret void
}